target datalayout = "e-m:e-p270:32:32-p271:32:32-p272:64:64-i64:64-i128:128-f80:128-n8:16:32:64-S128"
target triple = "x86_64-pc-linux-gnu"

; Function Attrs: nounwind sspstrong uwtable
define internal i64 @dir_each(i64 noundef %0) #0 {
  %2 = alloca i64, align 8
  %3 = alloca i64, align 8
  store i64 %0, ptr %3, align 8, !tbaa !7
  br label %4

4:                                                ; preds = %1
  %5 = call i32 @rb_block_given_p()
  %6 = icmp ne i32 %5, 0
  br i1 %6, label %12, label %7

7:                                                ; preds = %4
  %8 = load i64, ptr %3, align 8, !tbaa !7
  %9 = call i64 @rb_frame_this_func()
  %10 = call i64 @rb_id2sym(i64 noundef %9)
  %11 = call i64 @rb_enumeratorize_with_size(i64 noundef %8, i64 noundef %10, i32 noundef 0, ptr noundef null, ptr noundef null)
  store i64 %11, ptr %2, align 8
  br label %16

12:                                               ; preds = %4
  br label %13

13:                                               ; preds = %12
  %14 = load i64, ptr %3, align 8, !tbaa !7
  %15 = call i64 @dir_each_entry(i64 noundef %14, ptr noundef @dir_yield, i64 noundef 4, i32 noundef 0)
  store i64 %15, ptr %2, align 8
  br label %16

16:                                               ; preds = %13, %7
  %17 = load i64, ptr %2, align 8
  ret i64 %17
}