; Function Attrs: nounwind sspstrong uwtable
define internal i64 @dir_each(i64 noundef %0) #0 {
  %2 = tail call i32 @rb_block_given_p() #22
  %.not = icmp eq i32 %2, 0
  br i1 %.not, label %3, label %7

3:                                                ; preds = %1
  %4 = tail call i64 @rb_frame_this_func() #22
  %5 = tail call i64 @rb_id2sym(i64 noundef %4) #22
  %6 = tail call i64 @rb_enumeratorize_with_size(i64 noundef %0, i64 noundef %5, i32 noundef 0, ptr noundef null, ptr noundef null) #22
  br label %9

7:                                                ; preds = %1
  %8 = tail call fastcc i64 @dir_each_entry(i64 noundef %0, ptr noundef nonnull @dir_yield, i64 noundef 4, i32 noundef 0)
  br label %9

9:                                                ; preds = %7, %3
  %.0 = phi i64 [ %0, %7 ], [ %6, %3 ]
  ret i64 %.0
}